; ModuleID = '43/1040.c'
source_filename = "43/1040.c"
target datalayout = "e-m:e-p270:32:32-p271:32:32-p272:64:64-i64:64-f80:128-n8:16:32:64-S128"
target triple = "x86_64-pc-linux-gnu"

@.str = private unnamed_addr constant [3 x i8] c"%d\00", align 1
@.str.1 = private unnamed_addr constant [7 x i8] c"%d %d\0A\00", align 1

; Function Attrs: noinline nounwind uwtable
define dso_local i32 @main() #0 {
  %1 = alloca i32, align 4
  %2 = alloca i32, align 4
  %3 = alloca i32, align 4
  %4 = alloca i32, align 4
  %5 = alloca i32, align 4
  %6 = alloca i32, align 4
  %7 = alloca i32, align 4
  %8 = alloca i32, align 4
  store i32 0, i32* %1, align 4
  %9 = call i32 (i8*, ...) @__isoc99_scanf(i8* getelementptr inbounds ([3 x i8], [3 x i8]* @.str, i64 0, i64 0), i32* %2)
  store i32 2, i32* %3, align 4
  br label %10

10:                                               ; preds = %61, %0
  %11 = load i32, i32* %3, align 4
  %12 = load i32, i32* %2, align 4
  %13 = sdiv i32 %12, 2
  %14 = icmp sle i32 %11, %13
  br i1 %14, label %15, label %64

15:                                               ; preds = %10
  store i32 0, i32* %6, align 4
  store i32 0, i32* %8, align 4
  %16 = load i32, i32* %2, align 4
  %17 = load i32, i32* %3, align 4
  %18 = sub nsw i32 %16, %17
  store i32 %18, i32* %4, align 4
  store i32 2, i32* %5, align 4
  br label %19

19:                                               ; preds = %31, %15
  %20 = load i32, i32* %5, align 4
  %21 = load i32, i32* %3, align 4
  %22 = icmp slt i32 %20, %21
  br i1 %22, label %23, label %34

23:                                               ; preds = %19
  %24 = load i32, i32* %3, align 4
  %25 = load i32, i32* %5, align 4
  %26 = srem i32 %24, %25
  %27 = icmp eq i32 %26, 0
  br i1 %27, label %28, label %29

28:                                               ; preds = %23
  store i32 0, i32* %6, align 4
  br label %34

29:                                               ; preds = %23
  store i32 1, i32* %6, align 4
  br label %30

30:                                               ; preds = %29
  br label %31

31:                                               ; preds = %30
  %32 = load i32, i32* %5, align 4
  %33 = add nsw i32 %32, 1
  store i32 %33, i32* %5, align 4
  br label %19

34:                                               ; preds = %28, %19
  store i32 2, i32* %7, align 4
  br label %35

35:                                               ; preds = %47, %34
  %36 = load i32, i32* %7, align 4
  %37 = load i32, i32* %4, align 4
  %38 = icmp slt i32 %36, %37
  br i1 %38, label %39, label %50

39:                                               ; preds = %35
  %40 = load i32, i32* %4, align 4
  %41 = load i32, i32* %7, align 4
  %42 = srem i32 %40, %41
  %43 = icmp eq i32 %42, 0
  br i1 %43, label %44, label %45

44:                                               ; preds = %39
  store i32 0, i32* %8, align 4
  br label %50

45:                                               ; preds = %39
  store i32 1, i32* %8, align 4
  br label %46

46:                                               ; preds = %45
  br label %47

47:                                               ; preds = %46
  %48 = load i32, i32* %7, align 4
  %49 = add nsw i32 %48, 1
  store i32 %49, i32* %7, align 4
  br label %35

50:                                               ; preds = %44, %35
  %51 = load i32, i32* %8, align 4
  %52 = icmp eq i32 %51, 1
  br i1 %52, label %53, label %60

53:                                               ; preds = %50
  %54 = load i32, i32* %6, align 4
  %55 = icmp eq i32 %54, 1
  br i1 %55, label %56, label %60

56:                                               ; preds = %53
  %57 = load i32, i32* %3, align 4
  %58 = load i32, i32* %4, align 4
  %59 = call i32 (i8*, ...) @printf(i8* getelementptr inbounds ([7 x i8], [7 x i8]* @.str.1, i64 0, i64 0), i32 %57, i32 %58)
  br label %60

60:                                               ; preds = %56, %53, %50
  br label %61

61:                                               ; preds = %60
  %62 = load i32, i32* %3, align 4
  %63 = add nsw i32 %62, 1
  store i32 %63, i32* %3, align 4
  br label %10

64:                                               ; preds = %10
  ret i32 0
}

declare dso_local i32 @__isoc99_scanf(i8*, ...) #1

declare dso_local i32 @printf(i8*, ...) #1


!llvm.module.flags = !{!0}
!llvm.ident = !{!1}

!0 = !{i32 1, !"wchar_size", i32 4}
!1 = !{!"clang version 10.0.0-4ubuntu1 "}
