; ModuleID = 'source-C-CXX/42/1040.c'
source_filename = "source-C-CXX/42/1040.c"
target datalayout = "e-m:e-p270:32:32-p271:32:32-p272:64:64-i64:64-f80:128-n8:16:32:64-S128"
target triple = "x86_64-pc-linux-gnu"

@.str = private unnamed_addr constant [3 x i8] c"%d\00", align 1
@.str.1 = private unnamed_addr constant [7 x i8] c"%d %d\0A\00", align 1

; Function Attrs: nofree nounwind sspstrong uwtable
define dso_local i32 @main() local_unnamed_addr #0 {
  %1 = alloca i32, align 4
  %2 = bitcast i32* %1 to i8*
  call void @llvm.lifetime.start.p0i8(i64 4, i8* nonnull %2) #3
  %3 = call i32 (i8*, ...) @__isoc99_scanf(i8* getelementptr inbounds ([3 x i8], [3 x i8]* @.str, i64 0, i64 0), i32* nonnull %1)
  %4 = load i32, i32* %1, align 4, !tbaa !5
  %5 = icmp slt i32 %4, 4
  br i1 %5, label %44, label %6

6:                                                ; preds = %0, %38
  %7 = phi i32 [ %39, %38 ], [ %4, %0 ]
  %8 = phi i32 [ %43, %38 ], [ -2, %0 ]
  %9 = phi i32 [ %40, %38 ], [ 2, %0 ]
  %10 = sub nsw i32 %7, %9
  %11 = icmp ugt i32 %9, 2
  br i1 %11, label %12, label %21

12:                                               ; preds = %6, %12
  %13 = phi i32 [ %16, %12 ], [ 2, %6 ]
  %14 = urem i32 %9, %13
  %15 = icmp eq i32 %14, 0
  %16 = add nuw nsw i32 %13, 1
  %17 = icmp eq i32 %16, %9
  %18 = select i1 %15, i1 true, i1 %17
  br i1 %18, label %19, label %12, !llvm.loop !9

19:                                               ; preds = %12
  %20 = xor i1 %15, true
  br label %21

21:                                               ; preds = %19, %6
  %22 = phi i1 [ false, %6 ], [ %20, %19 ]
  %23 = icmp sgt i32 %10, 2
  br i1 %23, label %24, label %38

24:                                               ; preds = %21
  %25 = add i32 %7, %8
  br label %28

26:                                               ; preds = %28
  %27 = icmp eq i32 %32, %25
  br i1 %27, label %33, label %28, !llvm.loop !11

28:                                               ; preds = %24, %26
  %29 = phi i32 [ %32, %26 ], [ 2, %24 ]
  %30 = srem i32 %10, %29
  %31 = icmp eq i32 %30, 0
  %32 = add nuw nsw i32 %29, 1
  br i1 %31, label %38, label %26

33:                                               ; preds = %26
  %34 = and i1 %22, %23
  br i1 %34, label %35, label %38

35:                                               ; preds = %33
  %36 = call i32 (i8*, ...) @printf(i8* nonnull dereferenceable(1) getelementptr inbounds ([7 x i8], [7 x i8]* @.str.1, i64 0, i64 0), i32 %9, i32 %10)
  %37 = load i32, i32* %1, align 4, !tbaa !5
  br label %38

38:                                               ; preds = %28, %21, %33, %35
  %39 = phi i32 [ %7, %33 ], [ %37, %35 ], [ %7, %21 ], [ %7, %28 ]
  %40 = add nuw nsw i32 %9, 1
  %41 = sdiv i32 %39, 2
  %42 = icmp slt i32 %9, %41
  %43 = add nsw i32 %8, -1
  br i1 %42, label %6, label %44, !llvm.loop !12

44:                                               ; preds = %38, %0
  call void @llvm.lifetime.end.p0i8(i64 4, i8* nonnull %2) #3
  ret i32 0
}

; Function Attrs: argmemonly mustprogress nofree nosync nounwind willreturn
declare void @llvm.lifetime.start.p0i8(i64 immarg, i8* nocapture) #1

; Function Attrs: nofree nounwind
declare noundef i32 @__isoc99_scanf(i8* nocapture noundef readonly, ...) local_unnamed_addr #2

; Function Attrs: nofree nounwind
declare noundef i32 @printf(i8* nocapture noundef readonly, ...) local_unnamed_addr #2

; Function Attrs: argmemonly mustprogress nofree nosync nounwind willreturn
declare void @llvm.lifetime.end.p0i8(i64 immarg, i8* nocapture) #1


!llvm.module.flags = !{!0, !1, !2, !3}
!llvm.ident = !{!4}

!0 = !{i32 1, !"wchar_size", i32 4}
!1 = !{i32 7, !"PIC Level", i32 2}
!2 = !{i32 7, !"PIE Level", i32 2}
!3 = !{i32 7, !"uwtable", i32 1}
!4 = !{!"clang version 13.0.0"}
!5 = !{!6, !6, i64 0}
!6 = !{!"int", !7, i64 0}
!7 = !{!"omnipotent char", !8, i64 0}
!8 = !{!"Simple C/C++ TBAA"}
!9 = distinct !{!9, !10}
!10 = !{!"llvm.loop.mustprogress"}
!11 = distinct !{!11, !10}
!12 = distinct !{!12, !10}
